target datalayout = "e-m:e-p270:32:32-p271:32:32-p272:64:64-i64:64-i128:128-f80:128-n8:16:32:64-S128"
target triple = "x86_64-pc-linux-gnu"

@.str.9 = private unnamed_addr constant [133 x i8] c"generated/home/dtcxzyw/WorkSpace/Projects/compilers/llvm-opt-benchmark/bench/open3d/Open3D/cpp/open3d/t/geometry/RaycastingScene.cpp\00", align 1
@__PRETTY_FUNCTION__._ZN12_GLOBAL__N_113ErrorFunctionEPv8RTCErrorPKc = private unnamed_addr constant [79 x i8] c"void (anonymous namespace)::ErrorFunction(void *, enum RTCError, const char *)\00", align 1
@.str.10 = private unnamed_addr constant [20 x i8] c"Embree error: {} {}\00", align 1

; Function Attrs: mustprogress ssp uwtable
define internal void @_ZN12_GLOBAL__N_113ErrorFunctionEPv8RTCErrorPKc(ptr noundef %0, i32 noundef %1, ptr noundef %2) #3 {
  %4 = alloca ptr, align 8
  %5 = alloca i32, align 4
  %6 = alloca ptr, align 8
  %7 = alloca ptr, align 8
  store ptr %0, ptr %4, align 8, !tbaa !86
  store i32 %1, ptr %5, align 4, !tbaa !241
  store ptr %2, ptr %6, align 8, !tbaa !237
  call void @llvm.lifetime.start.p0(i64 8, ptr %7) #7
  %8 = load i32, ptr %5, align 4, !tbaa !241
  %9 = call ptr @rtcGetErrorString(i32 noundef %8)
  store ptr %9, ptr %7, align 8, !tbaa !237
  call void @_ZN6open3d7utility6Logger9LogError_IJPKcRS4_EEEvS4_iS4_S4_DpOT_(ptr noundef @.str.9, i32 noundef 176, ptr noundef @__PRETTY_FUNCTION__._ZN12_GLOBAL__N_113ErrorFunctionEPv8RTCErrorPKc, ptr noundef @.str.10, ptr noundef nonnull align 8 dereferenceable(8) %7, ptr noundef nonnull align 8 dereferenceable(8) %6) #37
  unreachable
}