; Function Attrs: mustprogress noreturn ssp uwtable
define internal void @_ZN12_GLOBAL__N_113ErrorFunctionEPv8RTCErrorPKc(ptr readnone captures(none) %0, i32 noundef %1, ptr noundef %2) #14 {
  %4 = alloca ptr, align 8
  %5 = alloca ptr, align 8
  store ptr %2, ptr %4, align 8, !tbaa !123
  call void @llvm.lifetime.start.p0(i64 8, ptr nonnull %5) #16
  %6 = tail call ptr @rtcGetErrorString(i32 noundef %1)
  store ptr %6, ptr %5, align 8, !tbaa !123
  call void @_ZN6open3d7utility6Logger9LogError_IJPKcRS4_EEEvS4_iS4_S4_DpOT_(ptr noundef nonnull @.str.9, i32 noundef 176, ptr noundef nonnull @__PRETTY_FUNCTION__._ZN12_GLOBAL__N_113ErrorFunctionEPv8RTCErrorPKc, ptr noundef nonnull @.str.10, ptr noundef nonnull align 8 dereferenceable(8) %5, ptr noundef nonnull align 8 dereferenceable(8) %4) #44
  unreachable
}